target datalayout = "e-m:e-p270:32:32-p271:32:32-p272:64:64-i64:64-i128:128-f80:128-n8:16:32:64-S128"
target triple = "x86_64-pc-linux-gnu"

%struct.ossl_qtx_st = type { ptr, ptr, %struct.ossl_qrl_enc_level_set_st, ptr, ptr, ptr, i64, %struct.ossl_list_st_txe, %struct.ossl_list_st_txe, i64, i64, ptr, i64, i64, i64, ptr, ptr, ptr, ptr, ptr, ptr }
%struct.ossl_qrl_enc_level_set_st = type { [4 x %struct.ossl_qrl_enc_level_st] }
%struct.ossl_qrl_enc_level_st = type { %struct.quic_hdr_protector_st, ptr, [2 x ptr], ptr, ptr, i64, i64, i32, i32, i8, i8, [2 x [16 x i8]], [64 x i8] }
%struct.quic_hdr_protector_st = type { ptr, ptr, ptr, ptr, i32 }
%struct.ossl_list_st_txe = type { ptr, ptr, i64 }
%struct.txe_st = type { %struct.anon, i64, i64, %union.bio_addr_st, %union.bio_addr_st }
%struct.anon = type { ptr, ptr }
%union.bio_addr_st = type { %struct.sockaddr_in6, [84 x i8] }
%struct.sockaddr_in6 = type { i16, i16, i32, %struct.in6_addr, i32 }
%struct.in6_addr = type { %union.anon }
%union.anon = type { [4 x i32] }
%struct.bio_msg_st = type { ptr, i64, ptr, ptr, i64 }

; Function Attrs: inlinehint nounwind uwtable
define internal void @ossl_list_txe_insert_tail(ptr noundef %0, ptr noundef %1) #3 {
  %3 = alloca ptr, align 8
  %4 = alloca ptr, align 8
  store ptr %0, ptr %3, align 8, !tbaa !37
  store ptr %1, ptr %4, align 8, !tbaa !39
  %5 = load ptr, ptr %3, align 8, !tbaa !37
  %6 = getelementptr inbounds nuw %struct.ossl_list_st_txe, ptr %5, i32 0, i32 1
  %7 = load ptr, ptr %6, align 8, !tbaa !82
  %8 = icmp ne ptr %7, null
  br i1 %8, label %9, label %16

9:                                                ; preds = %2
  %10 = load ptr, ptr %4, align 8, !tbaa !39
  %11 = load ptr, ptr %3, align 8, !tbaa !37
  %12 = getelementptr inbounds nuw %struct.ossl_list_st_txe, ptr %11, i32 0, i32 1
  %13 = load ptr, ptr %12, align 8, !tbaa !82
  %14 = getelementptr inbounds nuw %struct.txe_st, ptr %13, i32 0, i32 0
  %15 = getelementptr inbounds nuw %struct.anon, ptr %14, i32 0, i32 0
  store ptr %10, ptr %15, align 8, !tbaa !83
  br label %16

16:                                               ; preds = %9, %2
  %17 = load ptr, ptr %3, align 8, !tbaa !37
  %18 = getelementptr inbounds nuw %struct.ossl_list_st_txe, ptr %17, i32 0, i32 1
  %19 = load ptr, ptr %18, align 8, !tbaa !82
  %20 = load ptr, ptr %4, align 8, !tbaa !39
  %21 = getelementptr inbounds nuw %struct.txe_st, ptr %20, i32 0, i32 0
  %22 = getelementptr inbounds nuw %struct.anon, ptr %21, i32 0, i32 1
  store ptr %19, ptr %22, align 8, !tbaa !84
  %23 = load ptr, ptr %4, align 8, !tbaa !39
  %24 = getelementptr inbounds nuw %struct.txe_st, ptr %23, i32 0, i32 0
  %25 = getelementptr inbounds nuw %struct.anon, ptr %24, i32 0, i32 0
  store ptr null, ptr %25, align 8, !tbaa !83
  %26 = load ptr, ptr %4, align 8, !tbaa !39
  %27 = load ptr, ptr %3, align 8, !tbaa !37
  %28 = getelementptr inbounds nuw %struct.ossl_list_st_txe, ptr %27, i32 0, i32 1
  store ptr %26, ptr %28, align 8, !tbaa !82
  %29 = load ptr, ptr %3, align 8, !tbaa !37
  %30 = getelementptr inbounds nuw %struct.ossl_list_st_txe, ptr %29, i32 0, i32 0
  %31 = load ptr, ptr %30, align 8, !tbaa !85
  %32 = icmp eq ptr %31, null
  br i1 %32, label %33, label %37

33:                                               ; preds = %16
  %34 = load ptr, ptr %4, align 8, !tbaa !39
  %35 = load ptr, ptr %3, align 8, !tbaa !37
  %36 = getelementptr inbounds nuw %struct.ossl_list_st_txe, ptr %35, i32 0, i32 0
  store ptr %34, ptr %36, align 8, !tbaa !85
  br label %37

37:                                               ; preds = %33, %16
  %38 = load ptr, ptr %3, align 8, !tbaa !37
  %39 = getelementptr inbounds nuw %struct.ossl_list_st_txe, ptr %38, i32 0, i32 2
  %40 = load i64, ptr %39, align 8, !tbaa !86
  %41 = add i64 %40, 1
  store i64 %41, ptr %39, align 8, !tbaa !86
  ret void
}

; Function Attrs: inlinehint nounwind uwtable
define internal void @ossl_list_txe_remove(ptr noundef %0, ptr noundef %1) #3 {
  %3 = alloca ptr, align 8
  %4 = alloca ptr, align 8
  store ptr %0, ptr %3, align 8, !tbaa !37
  store ptr %1, ptr %4, align 8, !tbaa !39
  %5 = load ptr, ptr %3, align 8, !tbaa !37
  %6 = getelementptr inbounds nuw %struct.ossl_list_st_txe, ptr %5, i32 0, i32 0
  %7 = load ptr, ptr %6, align 8, !tbaa !85
  %8 = load ptr, ptr %4, align 8, !tbaa !39
  %9 = icmp eq ptr %7, %8
  br i1 %9, label %10, label %17

10:                                               ; preds = %2
  %11 = load ptr, ptr %4, align 8, !tbaa !39
  %12 = getelementptr inbounds nuw %struct.txe_st, ptr %11, i32 0, i32 0
  %13 = getelementptr inbounds nuw %struct.anon, ptr %12, i32 0, i32 0
  %14 = load ptr, ptr %13, align 8, !tbaa !83
  %15 = load ptr, ptr %3, align 8, !tbaa !37
  %16 = getelementptr inbounds nuw %struct.ossl_list_st_txe, ptr %15, i32 0, i32 0
  store ptr %14, ptr %16, align 8, !tbaa !85
  br label %17

17:                                               ; preds = %10, %2
  %18 = load ptr, ptr %3, align 8, !tbaa !37
  %19 = getelementptr inbounds nuw %struct.ossl_list_st_txe, ptr %18, i32 0, i32 1
  %20 = load ptr, ptr %19, align 8, !tbaa !82
  %21 = load ptr, ptr %4, align 8, !tbaa !39
  %22 = icmp eq ptr %20, %21
  br i1 %22, label %23, label %30

23:                                               ; preds = %17
  %24 = load ptr, ptr %4, align 8, !tbaa !39
  %25 = getelementptr inbounds nuw %struct.txe_st, ptr %24, i32 0, i32 0
  %26 = getelementptr inbounds nuw %struct.anon, ptr %25, i32 0, i32 1
  %27 = load ptr, ptr %26, align 8, !tbaa !84
  %28 = load ptr, ptr %3, align 8, !tbaa !37
  %29 = getelementptr inbounds nuw %struct.ossl_list_st_txe, ptr %28, i32 0, i32 1
  store ptr %27, ptr %29, align 8, !tbaa !82
  br label %30

30:                                               ; preds = %23, %17
  %31 = load ptr, ptr %4, align 8, !tbaa !39
  %32 = getelementptr inbounds nuw %struct.txe_st, ptr %31, i32 0, i32 0
  %33 = getelementptr inbounds nuw %struct.anon, ptr %32, i32 0, i32 1
  %34 = load ptr, ptr %33, align 8, !tbaa !84
  %35 = icmp ne ptr %34, null
  br i1 %35, label %36, label %47

36:                                               ; preds = %30
  %37 = load ptr, ptr %4, align 8, !tbaa !39
  %38 = getelementptr inbounds nuw %struct.txe_st, ptr %37, i32 0, i32 0
  %39 = getelementptr inbounds nuw %struct.anon, ptr %38, i32 0, i32 0
  %40 = load ptr, ptr %39, align 8, !tbaa !83
  %41 = load ptr, ptr %4, align 8, !tbaa !39
  %42 = getelementptr inbounds nuw %struct.txe_st, ptr %41, i32 0, i32 0
  %43 = getelementptr inbounds nuw %struct.anon, ptr %42, i32 0, i32 1
  %44 = load ptr, ptr %43, align 8, !tbaa !84
  %45 = getelementptr inbounds nuw %struct.txe_st, ptr %44, i32 0, i32 0
  %46 = getelementptr inbounds nuw %struct.anon, ptr %45, i32 0, i32 0
  store ptr %40, ptr %46, align 8, !tbaa !83
  br label %47

47:                                               ; preds = %36, %30
  %48 = load ptr, ptr %4, align 8, !tbaa !39
  %49 = getelementptr inbounds nuw %struct.txe_st, ptr %48, i32 0, i32 0
  %50 = getelementptr inbounds nuw %struct.anon, ptr %49, i32 0, i32 0
  %51 = load ptr, ptr %50, align 8, !tbaa !83
  %52 = icmp ne ptr %51, null
  br i1 %52, label %53, label %64

53:                                               ; preds = %47
  %54 = load ptr, ptr %4, align 8, !tbaa !39
  %55 = getelementptr inbounds nuw %struct.txe_st, ptr %54, i32 0, i32 0
  %56 = getelementptr inbounds nuw %struct.anon, ptr %55, i32 0, i32 1
  %57 = load ptr, ptr %56, align 8, !tbaa !84
  %58 = load ptr, ptr %4, align 8, !tbaa !39
  %59 = getelementptr inbounds nuw %struct.txe_st, ptr %58, i32 0, i32 0
  %60 = getelementptr inbounds nuw %struct.anon, ptr %59, i32 0, i32 0
  %61 = load ptr, ptr %60, align 8, !tbaa !83
  %62 = getelementptr inbounds nuw %struct.txe_st, ptr %61, i32 0, i32 0
  %63 = getelementptr inbounds nuw %struct.anon, ptr %62, i32 0, i32 1
  store ptr %57, ptr %63, align 8, !tbaa !84
  br label %64

64:                                               ; preds = %53, %47
  %65 = load ptr, ptr %3, align 8, !tbaa !37
  %66 = getelementptr inbounds nuw %struct.ossl_list_st_txe, ptr %65, i32 0, i32 2
  %67 = load i64, ptr %66, align 8, !tbaa !86
  %68 = add i64 %67, -1
  store i64 %68, ptr %66, align 8, !tbaa !86
  %69 = load ptr, ptr %4, align 8, !tbaa !39
  %70 = getelementptr inbounds nuw %struct.txe_st, ptr %69, i32 0, i32 0
  call void @llvm.memset.p0.i64(ptr align 8 %70, i8 0, i64 16, i1 false)
  ret void
}

; Function Attrs: inlinehint nounwind uwtable
define internal ptr @txe_data(ptr noundef %0) #3 {
  %2 = alloca ptr, align 8
  store ptr %0, ptr %2, align 8, !tbaa !39
  %3 = load ptr, ptr %2, align 8, !tbaa !39
  %4 = getelementptr inbounds %struct.txe_st, ptr %3, i64 1
  ret ptr %4
}

; Function Attrs: nounwind uwtable
define internal void @qtx_pending_to_free(ptr noundef %0) #0 {
  %2 = alloca ptr, align 8
  %3 = alloca ptr, align 8
  store ptr %0, ptr %2, align 8, !tbaa !14
  call void @llvm.lifetime.start.p0(i64 8, ptr %3) #8
  %4 = load ptr, ptr %2, align 8, !tbaa !14
  %5 = getelementptr inbounds nuw %struct.ossl_qtx_st, ptr %4, i32 0, i32 8
  %6 = call ptr @ossl_list_txe_head(ptr noundef %5)
  store ptr %6, ptr %3, align 8, !tbaa !39
  %7 = load ptr, ptr %2, align 8, !tbaa !14
  %8 = getelementptr inbounds nuw %struct.ossl_qtx_st, ptr %7, i32 0, i32 8
  %9 = load ptr, ptr %3, align 8, !tbaa !39
  call void @ossl_list_txe_remove(ptr noundef %8, ptr noundef %9)
  %10 = load ptr, ptr %2, align 8, !tbaa !14
  %11 = getelementptr inbounds nuw %struct.ossl_qtx_st, ptr %10, i32 0, i32 9
  %12 = load i64, ptr %11, align 8, !tbaa !87
  %13 = add i64 %12, -1
  store i64 %13, ptr %11, align 8, !tbaa !87
  %14 = load ptr, ptr %3, align 8, !tbaa !39
  %15 = getelementptr inbounds nuw %struct.txe_st, ptr %14, i32 0, i32 1
  %16 = load i64, ptr %15, align 8, !tbaa !66
  %17 = load ptr, ptr %2, align 8, !tbaa !14
  %18 = getelementptr inbounds nuw %struct.ossl_qtx_st, ptr %17, i32 0, i32 10
  %19 = load i64, ptr %18, align 8, !tbaa !88
  %20 = sub i64 %19, %16
  store i64 %20, ptr %18, align 8, !tbaa !88
  %21 = load ptr, ptr %2, align 8, !tbaa !14
  %22 = getelementptr inbounds nuw %struct.ossl_qtx_st, ptr %21, i32 0, i32 7
  %23 = load ptr, ptr %3, align 8, !tbaa !39
  call void @ossl_list_txe_insert_tail(ptr noundef %22, ptr noundef %23)
  call void @llvm.lifetime.end.p0(i64 8, ptr %3) #8
  ret void
}

; Function Attrs: nounwind uwtable
define internal void @txe_to_msg(ptr noundef %0, ptr noundef %1) #0 {
  %3 = alloca ptr, align 8
  %4 = alloca ptr, align 8
  store ptr %0, ptr %3, align 8, !tbaa !39
  store ptr %1, ptr %4, align 8, !tbaa !97
  %5 = load ptr, ptr %3, align 8, !tbaa !39
  %6 = call ptr @txe_data(ptr noundef %5)
  %7 = load ptr, ptr %4, align 8, !tbaa !97
  %8 = getelementptr inbounds nuw %struct.bio_msg_st, ptr %7, i32 0, i32 0
  store ptr %6, ptr %8, align 8, !tbaa !91
  %9 = load ptr, ptr %3, align 8, !tbaa !39
  %10 = getelementptr inbounds nuw %struct.txe_st, ptr %9, i32 0, i32 1
  %11 = load i64, ptr %10, align 8, !tbaa !66
  %12 = load ptr, ptr %4, align 8, !tbaa !97
  %13 = getelementptr inbounds nuw %struct.bio_msg_st, ptr %12, i32 0, i32 1
  store i64 %11, ptr %13, align 8, !tbaa !93
  %14 = load ptr, ptr %4, align 8, !tbaa !97
  %15 = getelementptr inbounds nuw %struct.bio_msg_st, ptr %14, i32 0, i32 4
  store i64 0, ptr %15, align 8, !tbaa !99
  %16 = load ptr, ptr %3, align 8, !tbaa !39
  %17 = getelementptr inbounds nuw %struct.txe_st, ptr %16, i32 0, i32 3
  %18 = call i32 @BIO_ADDR_family(ptr noundef %17)
  %19 = icmp ne i32 %18, 0
  br i1 %19, label %20, label %23

20:                                               ; preds = %2
  %21 = load ptr, ptr %3, align 8, !tbaa !39
  %22 = getelementptr inbounds nuw %struct.txe_st, ptr %21, i32 0, i32 3
  br label %24

23:                                               ; preds = %2
  br label %24

24:                                               ; preds = %23, %20
  %25 = phi ptr [ %22, %20 ], [ null, %23 ]
  %26 = load ptr, ptr %4, align 8, !tbaa !97
  %27 = getelementptr inbounds nuw %struct.bio_msg_st, ptr %26, i32 0, i32 2
  store ptr %25, ptr %27, align 8, !tbaa !100
  %28 = load ptr, ptr %3, align 8, !tbaa !39
  %29 = getelementptr inbounds nuw %struct.txe_st, ptr %28, i32 0, i32 4
  %30 = call i32 @BIO_ADDR_family(ptr noundef %29)
  %31 = icmp ne i32 %30, 0
  br i1 %31, label %32, label %35

32:                                               ; preds = %24
  %33 = load ptr, ptr %3, align 8, !tbaa !39
  %34 = getelementptr inbounds nuw %struct.txe_st, ptr %33, i32 0, i32 4
  br label %36

35:                                               ; preds = %24
  br label %36

36:                                               ; preds = %35, %32
  %37 = phi ptr [ %34, %32 ], [ null, %35 ]
  %38 = load ptr, ptr %4, align 8, !tbaa !97
  %39 = getelementptr inbounds nuw %struct.bio_msg_st, ptr %38, i32 0, i32 3
  store ptr %37, ptr %39, align 8, !tbaa !101
  ret void
}

; Function Attrs: inlinehint nounwind uwtable
define internal ptr @ossl_list_txe_head(ptr noundef %0) #3 {
  %2 = alloca ptr, align 8
  store ptr %0, ptr %2, align 8, !tbaa !37
  %3 = load ptr, ptr %2, align 8, !tbaa !37
  %4 = getelementptr inbounds nuw %struct.ossl_list_st_txe, ptr %3, i32 0, i32 0
  %5 = load ptr, ptr %4, align 8, !tbaa !85
  ret ptr %5
}

; Function Attrs: nounwind uwtable
define i32 @ossl_qtx_pop_net(ptr noundef %0, ptr noundef %1) #0 {
  %3 = alloca i32, align 4
  %4 = alloca ptr, align 8
  %5 = alloca ptr, align 8
  %6 = alloca ptr, align 8
  %7 = alloca i32, align 4
  store ptr %0, ptr %4, align 8, !tbaa !14
  store ptr %1, ptr %5, align 8, !tbaa !97
  call void @llvm.lifetime.start.p0(i64 8, ptr %6) #8
  %8 = load ptr, ptr %4, align 8, !tbaa !14
  %9 = getelementptr inbounds nuw %struct.ossl_qtx_st, ptr %8, i32 0, i32 8
  %10 = call ptr @ossl_list_txe_head(ptr noundef %9)
  store ptr %10, ptr %6, align 8, !tbaa !39
  %11 = load ptr, ptr %6, align 8, !tbaa !39
  %12 = icmp eq ptr %11, null
  br i1 %12, label %13, label %14

13:                                               ; preds = %2
  store i32 0, ptr %3, align 4
  store i32 1, ptr %7, align 4
  br label %18

14:                                               ; preds = %2
  %15 = load ptr, ptr %6, align 8, !tbaa !39
  %16 = load ptr, ptr %5, align 8, !tbaa !97
  call void @txe_to_msg(ptr noundef %15, ptr noundef %16)
  %17 = load ptr, ptr %4, align 8, !tbaa !14
  call void @qtx_pending_to_free(ptr noundef %17)
  store i32 1, ptr %3, align 4
  store i32 1, ptr %7, align 4
  br label %18

18:                                               ; preds = %14, %13
  call void @llvm.lifetime.end.p0(i64 8, ptr %6) #8
  %19 = load i32, ptr %3, align 4
  ret i32 %19
}