; Function Attrs: nounwind uwtable
define range(i32 0, 2) i32 @ossl_qtx_pop_net(ptr noundef captures(none) %0, ptr noundef writeonly captures(none) %1) local_unnamed_addr #0 {
  %3 = getelementptr inbounds nuw i8, ptr %0, i64 904
  %.val = load ptr, ptr %3, align 8, !tbaa !28
  %4 = icmp eq ptr %.val, null
  br i1 %4, label %52, label %5

5:                                                ; preds = %2
  %6 = getelementptr inbounds nuw i8, ptr %.val, i64 256
  store ptr %6, ptr %1, align 8, !tbaa !90
  %7 = getelementptr inbounds nuw i8, ptr %.val, i64 16
  %8 = load i64, ptr %7, align 8, !tbaa !53
  %9 = getelementptr inbounds nuw i8, ptr %1, i64 8
  store i64 %8, ptr %9, align 8, !tbaa !92
  %10 = getelementptr inbounds nuw i8, ptr %1, i64 32
  store i64 0, ptr %10, align 8, !tbaa !93
  %11 = getelementptr inbounds nuw i8, ptr %.val, i64 32
  %12 = tail call i32 @BIO_ADDR_family(ptr noundef nonnull %11) #11
  %.not.i = icmp eq i32 %12, 0
  %13 = select i1 %.not.i, ptr null, ptr %11
  %14 = getelementptr inbounds nuw i8, ptr %1, i64 16
  store ptr %13, ptr %14, align 8, !tbaa !94
  %15 = getelementptr inbounds nuw i8, ptr %.val, i64 144
  %16 = tail call i32 @BIO_ADDR_family(ptr noundef nonnull %15) #11
  %.not11.i = icmp eq i32 %16, 0
  %17 = select i1 %.not11.i, ptr null, ptr %15
  %18 = getelementptr inbounds nuw i8, ptr %1, i64 24
  store ptr %17, ptr %18, align 8, !tbaa !95
  %.val.i = load ptr, ptr %3, align 8, !tbaa !28
  %19 = load ptr, ptr %.val.i, align 8, !tbaa !29
  store ptr %19, ptr %3, align 8, !tbaa !28
  %20 = getelementptr inbounds nuw i8, ptr %0, i64 912
  %21 = load ptr, ptr %20, align 8, !tbaa !54
  %22 = icmp eq ptr %21, %.val.i
  %23 = getelementptr inbounds nuw i8, ptr %.val.i, i64 8
  %24 = load ptr, ptr %23, align 8, !tbaa !55
  br i1 %22, label %25, label %._crit_edge.i.i

25:                                               ; preds = %5
  store ptr %24, ptr %20, align 8, !tbaa !54
  br label %._crit_edge.i.i

._crit_edge.i.i:                                  ; preds = %25, %5
  %.not.i.i = icmp eq ptr %24, null
  br i1 %.not.i.i, label %27, label %26

26:                                               ; preds = %._crit_edge.i.i
  store ptr %19, ptr %24, align 8, !tbaa !29
  br label %27

27:                                               ; preds = %26, %._crit_edge.i.i
  %.not18.i.i = icmp eq ptr %19, null
  br i1 %.not18.i.i, label %ossl_list_txe_remove.exit.i, label %28

28:                                               ; preds = %27
  %29 = getelementptr inbounds nuw i8, ptr %19, i64 8
  store ptr %24, ptr %29, align 8, !tbaa !55
  br label %ossl_list_txe_remove.exit.i

ossl_list_txe_remove.exit.i:                      ; preds = %28, %27
  %30 = getelementptr inbounds nuw i8, ptr %0, i64 920
  %31 = load i64, ptr %30, align 8, !tbaa !56
  %32 = add i64 %31, -1
  store i64 %32, ptr %30, align 8, !tbaa !56
  tail call void @llvm.memset.p0.i64(ptr noundef nonnull align 8 dereferenceable(16) %.val.i, i8 0, i64 16, i1 false)
  %33 = getelementptr inbounds nuw i8, ptr %0, i64 928
  %34 = load i64, ptr %33, align 8, !tbaa !57
  %35 = add i64 %34, -1
  store i64 %35, ptr %33, align 8, !tbaa !57
  %36 = getelementptr inbounds nuw i8, ptr %.val.i, i64 16
  %37 = load i64, ptr %36, align 8, !tbaa !53
  %38 = getelementptr inbounds nuw i8, ptr %0, i64 936
  %39 = load i64, ptr %38, align 8, !tbaa !98
  %40 = sub i64 %39, %37
  store i64 %40, ptr %38, align 8, !tbaa !98
  %41 = getelementptr inbounds nuw i8, ptr %0, i64 880
  %42 = getelementptr inbounds nuw i8, ptr %0, i64 888
  %43 = load ptr, ptr %42, align 8, !tbaa !54
  %.not.i8.i = icmp eq ptr %43, null
  br i1 %.not.i8.i, label %45, label %44

44:                                               ; preds = %ossl_list_txe_remove.exit.i
  store ptr %.val.i, ptr %43, align 8, !tbaa !29
  br label %45

45:                                               ; preds = %44, %ossl_list_txe_remove.exit.i
  store ptr %43, ptr %23, align 8, !tbaa !55
  store ptr null, ptr %.val.i, align 8, !tbaa !29
  store ptr %.val.i, ptr %42, align 8, !tbaa !54
  %46 = load ptr, ptr %41, align 8, !tbaa !28
  %47 = icmp eq ptr %46, null
  br i1 %47, label %48, label %qtx_pending_to_free.exit

48:                                               ; preds = %45
  store ptr %.val.i, ptr %41, align 8, !tbaa !28
  br label %qtx_pending_to_free.exit

qtx_pending_to_free.exit:                         ; preds = %45, %48
  %49 = getelementptr inbounds nuw i8, ptr %0, i64 896
  %50 = load i64, ptr %49, align 8, !tbaa !56
  %51 = add i64 %50, 1
  store i64 %51, ptr %49, align 8, !tbaa !56
  br label %52

52:                                               ; preds = %2, %qtx_pending_to_free.exit
  %.0 = phi i32 [ 1, %qtx_pending_to_free.exit ], [ 0, %2 ]
  ret i32 %.0
}